; Function Attrs: nounwind uwtable
define noalias nonnull ptr @l_Lean_Compiler_LCNF_InferType_inferAppType___lambda__1___boxed(ptr noundef %0, ptr noundef %1, ptr noundef %2, ptr noundef %3, ptr noundef %4, ptr noundef %5, ptr noundef %6, ptr noundef %7, ptr noundef %8, ptr noundef %9, ptr noundef %10) local_unnamed_addr #0 {
  %12 = tail call ptr @lean_expr_instantiate_rev_range(ptr noundef %0, ptr noundef %1, ptr noundef %2, ptr noundef %3) #5
  %13 = tail call ptr @l_Lean_Expr_headBeta(ptr noundef %12) #5
  tail call void @lean_inc_heartbeat() #5
  %14 = tail call noalias ptr @mi_malloc_small(i64 noundef 24) #5
  %15 = icmp eq ptr %14, null
  br i1 %15, label %16, label %l_Lean_Compiler_LCNF_InferType_inferAppType___lambda__1.exit

16:                                               ; preds = %11
  tail call void @lean_internal_panic_out_of_memory() #6
  unreachable

l_Lean_Compiler_LCNF_InferType_inferAppType___lambda__1.exit: ; preds = %11
  %17 = getelementptr inbounds nuw i8, ptr %14, i64 4
  store i32 1, ptr %14, align 4, !tbaa !4
  store i32 131096, ptr %17, align 4
  %18 = getelementptr inbounds nuw i8, ptr %14, i64 8
  store ptr %13, ptr %18, align 8, !tbaa !10
  %19 = getelementptr inbounds nuw i8, ptr %14, i64 16
  store ptr %10, ptr %19, align 8, !tbaa !10
  %20 = ptrtoint ptr %9 to i64
  %21 = and i64 %20, 1
  %.not = icmp eq i64 %21, 0
  br i1 %.not, label %22, label %lean_dec.exit30

22:                                               ; preds = %l_Lean_Compiler_LCNF_InferType_inferAppType___lambda__1.exit
  %23 = load i32, ptr %9, align 4, !tbaa !4
  %24 = icmp sgt i32 %23, 1
  br i1 %24, label %25, label %27, !prof !9

25:                                               ; preds = %22
  %26 = add nsw i32 %23, -1
  store i32 %26, ptr %9, align 4, !tbaa !4
  br label %lean_dec.exit30

27:                                               ; preds = %22
  %.not.i = icmp eq i32 %23, 0
  br i1 %.not.i, label %lean_dec.exit30, label %28

28:                                               ; preds = %27
  tail call void @lean_dec_ref_cold(ptr noundef nonnull %9) #5
  br label %lean_dec.exit30

lean_dec.exit30:                                  ; preds = %28, %27, %25, %l_Lean_Compiler_LCNF_InferType_inferAppType___lambda__1.exit
  %29 = ptrtoint ptr %8 to i64
  %30 = and i64 %29, 1
  %.not49 = icmp eq i64 %30, 0
  br i1 %.not49, label %31, label %lean_dec.exit29

31:                                               ; preds = %lean_dec.exit30
  %32 = load i32, ptr %8, align 4, !tbaa !4
  %33 = icmp sgt i32 %32, 1
  br i1 %33, label %34, label %36, !prof !9

34:                                               ; preds = %31
  %35 = add nsw i32 %32, -1
  store i32 %35, ptr %8, align 4, !tbaa !4
  br label %lean_dec.exit29

36:                                               ; preds = %31
  %.not.i31 = icmp eq i32 %32, 0
  br i1 %.not.i31, label %lean_dec.exit29, label %37

37:                                               ; preds = %36
  tail call void @lean_dec_ref_cold(ptr noundef nonnull %8) #5
  br label %lean_dec.exit29

lean_dec.exit29:                                  ; preds = %37, %36, %34, %lean_dec.exit30
  %38 = ptrtoint ptr %7 to i64
  %39 = and i64 %38, 1
  %.not50 = icmp eq i64 %39, 0
  br i1 %.not50, label %40, label %lean_dec.exit28

40:                                               ; preds = %lean_dec.exit29
  %41 = load i32, ptr %7, align 4, !tbaa !4
  %42 = icmp sgt i32 %41, 1
  br i1 %42, label %43, label %45, !prof !9

43:                                               ; preds = %40
  %44 = add nsw i32 %41, -1
  store i32 %44, ptr %7, align 4, !tbaa !4
  br label %lean_dec.exit28

45:                                               ; preds = %40
  %.not.i33 = icmp eq i32 %41, 0
  br i1 %.not.i33, label %lean_dec.exit28, label %46

46:                                               ; preds = %45
  tail call void @lean_dec_ref_cold(ptr noundef nonnull %7) #5
  br label %lean_dec.exit28

lean_dec.exit28:                                  ; preds = %46, %45, %43, %lean_dec.exit29
  %47 = ptrtoint ptr %6 to i64
  %48 = and i64 %47, 1
  %.not51 = icmp eq i64 %48, 0
  br i1 %.not51, label %49, label %lean_dec.exit27

49:                                               ; preds = %lean_dec.exit28
  %50 = load i32, ptr %6, align 4, !tbaa !4
  %51 = icmp sgt i32 %50, 1
  br i1 %51, label %52, label %54, !prof !9

52:                                               ; preds = %49
  %53 = add nsw i32 %50, -1
  store i32 %53, ptr %6, align 4, !tbaa !4
  br label %lean_dec.exit27

54:                                               ; preds = %49
  %.not.i35 = icmp eq i32 %50, 0
  br i1 %.not.i35, label %lean_dec.exit27, label %55

55:                                               ; preds = %54
  tail call void @lean_dec_ref_cold(ptr noundef nonnull %6) #5
  br label %lean_dec.exit27

lean_dec.exit27:                                  ; preds = %55, %54, %52, %lean_dec.exit28
  %56 = ptrtoint ptr %5 to i64
  %57 = and i64 %56, 1
  %.not52 = icmp eq i64 %57, 0
  br i1 %.not52, label %58, label %lean_dec.exit26

58:                                               ; preds = %lean_dec.exit27
  %59 = load i32, ptr %5, align 4, !tbaa !4
  %60 = icmp sgt i32 %59, 1
  br i1 %60, label %61, label %63, !prof !9

61:                                               ; preds = %58
  %62 = add nsw i32 %59, -1
  store i32 %62, ptr %5, align 4, !tbaa !4
  br label %lean_dec.exit26

63:                                               ; preds = %58
  %.not.i37 = icmp eq i32 %59, 0
  br i1 %.not.i37, label %lean_dec.exit26, label %64

64:                                               ; preds = %63
  tail call void @lean_dec_ref_cold(ptr noundef nonnull %5) #5
  br label %lean_dec.exit26

lean_dec.exit26:                                  ; preds = %64, %63, %61, %lean_dec.exit27
  %65 = ptrtoint ptr %4 to i64
  %66 = and i64 %65, 1
  %.not53 = icmp eq i64 %66, 0
  br i1 %.not53, label %67, label %lean_dec.exit25

67:                                               ; preds = %lean_dec.exit26
  %68 = load i32, ptr %4, align 4, !tbaa !4
  %69 = icmp sgt i32 %68, 1
  br i1 %69, label %70, label %72, !prof !9

70:                                               ; preds = %67
  %71 = add nsw i32 %68, -1
  store i32 %71, ptr %4, align 4, !tbaa !4
  br label %lean_dec.exit25

72:                                               ; preds = %67
  %.not.i39 = icmp eq i32 %68, 0
  br i1 %.not.i39, label %lean_dec.exit25, label %73

73:                                               ; preds = %72
  tail call void @lean_dec_ref_cold(ptr noundef nonnull %4) #5
  br label %lean_dec.exit25

lean_dec.exit25:                                  ; preds = %73, %72, %70, %lean_dec.exit26
  %74 = ptrtoint ptr %3 to i64
  %75 = and i64 %74, 1
  %.not54 = icmp eq i64 %75, 0
  br i1 %.not54, label %76, label %lean_dec.exit24

76:                                               ; preds = %lean_dec.exit25
  %77 = load i32, ptr %3, align 4, !tbaa !4
  %78 = icmp sgt i32 %77, 1
  br i1 %78, label %79, label %81, !prof !9

79:                                               ; preds = %76
  %80 = add nsw i32 %77, -1
  store i32 %80, ptr %3, align 4, !tbaa !4
  br label %lean_dec.exit24

81:                                               ; preds = %76
  %.not.i41 = icmp eq i32 %77, 0
  br i1 %.not.i41, label %lean_dec.exit24, label %82

82:                                               ; preds = %81
  tail call void @lean_dec_ref_cold(ptr noundef nonnull %3) #5
  br label %lean_dec.exit24

lean_dec.exit24:                                  ; preds = %82, %81, %79, %lean_dec.exit25
  %83 = ptrtoint ptr %2 to i64
  %84 = and i64 %83, 1
  %.not55 = icmp eq i64 %84, 0
  br i1 %.not55, label %85, label %lean_dec.exit23

85:                                               ; preds = %lean_dec.exit24
  %86 = load i32, ptr %2, align 4, !tbaa !4
  %87 = icmp sgt i32 %86, 1
  br i1 %87, label %88, label %90, !prof !9

88:                                               ; preds = %85
  %89 = add nsw i32 %86, -1
  store i32 %89, ptr %2, align 4, !tbaa !4
  br label %lean_dec.exit23

90:                                               ; preds = %85
  %.not.i43 = icmp eq i32 %86, 0
  br i1 %.not.i43, label %lean_dec.exit23, label %91

91:                                               ; preds = %90
  tail call void @lean_dec_ref_cold(ptr noundef nonnull %2) #5
  br label %lean_dec.exit23

lean_dec.exit23:                                  ; preds = %91, %90, %88, %lean_dec.exit24
  %92 = ptrtoint ptr %1 to i64
  %93 = and i64 %92, 1
  %.not56 = icmp eq i64 %93, 0
  br i1 %.not56, label %94, label %lean_dec.exit22

94:                                               ; preds = %lean_dec.exit23
  %95 = load i32, ptr %1, align 4, !tbaa !4
  %96 = icmp sgt i32 %95, 1
  br i1 %96, label %97, label %99, !prof !9

97:                                               ; preds = %94
  %98 = add nsw i32 %95, -1
  store i32 %98, ptr %1, align 4, !tbaa !4
  br label %lean_dec.exit22

99:                                               ; preds = %94
  %.not.i45 = icmp eq i32 %95, 0
  br i1 %.not.i45, label %lean_dec.exit22, label %100

100:                                              ; preds = %99
  tail call void @lean_dec_ref_cold(ptr noundef nonnull %1) #5
  br label %lean_dec.exit22

lean_dec.exit22:                                  ; preds = %100, %99, %97, %lean_dec.exit23
  %101 = ptrtoint ptr %0 to i64
  %102 = and i64 %101, 1
  %.not57 = icmp eq i64 %102, 0
  br i1 %.not57, label %103, label %lean_dec.exit

103:                                              ; preds = %lean_dec.exit22
  %104 = load i32, ptr %0, align 4, !tbaa !4
  %105 = icmp sgt i32 %104, 1
  br i1 %105, label %106, label %108, !prof !9

106:                                              ; preds = %103
  %107 = add nsw i32 %104, -1
  store i32 %107, ptr %0, align 4, !tbaa !4
  br label %lean_dec.exit

108:                                              ; preds = %103
  %.not.i47 = icmp eq i32 %104, 0
  br i1 %.not.i47, label %lean_dec.exit, label %109

109:                                              ; preds = %108
  tail call void @lean_dec_ref_cold(ptr noundef nonnull %0) #5
  br label %lean_dec.exit

lean_dec.exit:                                    ; preds = %109, %108, %106, %lean_dec.exit22
  ret ptr %14
}